target datalayout = "e-m:e-p270:32:32-p271:32:32-p272:64:64-i64:64-i128:128-f80:128-n8:16:32:64-S128"
target triple = "x86_64-pc-linux-gnu"

%"struct.std::atomic" = type { %"struct.std::__atomic_base" }
%"struct.std::__atomic_base" = type { i8 }
%"class.std::function" = type { %"class.std::_Function_base", ptr }
%"class.std::_Function_base" = type { %"union.std::_Any_data", ptr }
%"union.std::_Any_data" = type { %"union.std::_Nocopy_types" }
%"union.std::_Nocopy_types" = type { { i64, i64 } }
%"class.std::basic_string_view" = type { i64, ptr }

@_ZTIN3nix8SysErrorE = linkonce_odr constant { ptr, ptr, ptr } { ptr getelementptr inbounds (ptr, ptr @_ZTVN10__cxxabiv120__si_class_type_infoE, i64 2), ptr @_ZTSN3nix8SysErrorE, ptr @_ZTIN3nix11SystemErrorE }, comdat, align 8
@.str.5 = private unnamed_addr constant [16 x i8] c"writing to file\00", align 1
@_ZN3nix14_isInterruptedE = external global %"struct.std::atomic", align 1
@_ZN3nix14interruptCheckE = external thread_local global %"class.std::function", align 8

; Function Attrs: mustprogress nounwind uwtable
define linkonce_odr noundef zeroext i1 @_ZNKSt14_Function_base8_M_emptyEv(ptr noundef nonnull align 8 dereferenceable(24) %0) #2 comdat align 2 {
  %2 = alloca ptr, align 8
  store ptr %0, ptr %2, align 8
  %3 = load ptr, ptr %2, align 8
  %4 = getelementptr inbounds %"class.std::_Function_base", ptr %3, i32 0, i32 1
  %5 = load ptr, ptr %4, align 8
  %6 = icmp ne ptr %5, null
  %7 = xor i1 %6, true
  ret i1 %7
}

; Function Attrs: noreturn nounwind uwtable
define linkonce_odr hidden void @__clang_call_terminate(ptr noundef %0) #7 comdat {
  %2 = call ptr @__cxa_begin_catch(ptr %0) #1
  call void @_ZSt9terminatev() #21
  unreachable
}

; Function Attrs: mustprogress nounwind uwtable
define linkonce_odr noundef i32 @_ZStanSt12memory_orderSt23__memory_order_modifier(i32 noundef %0, i32 noundef %1) #2 comdat {
  %3 = alloca i32, align 4
  %4 = alloca i32, align 4
  store i32 %0, ptr %3, align 4
  store i32 %1, ptr %4, align 4
  %5 = load i32, ptr %3, align 4
  %6 = load i32, ptr %4, align 4
  %7 = and i32 %5, %6
  ret i32 %7
}

; Function Attrs: mustprogress uwtable
define linkonce_odr noundef zeroext i1 @_ZNKSt8functionIFbvEEclEv(ptr noundef nonnull align 8 dereferenceable(32) %0) #3 comdat align 2 {
  %2 = alloca ptr, align 8
  store ptr %0, ptr %2, align 8
  %3 = load ptr, ptr %2, align 8
  %4 = call noundef zeroext i1 @_ZNKSt14_Function_base8_M_emptyEv(ptr noundef nonnull align 8 dereferenceable(24) %3)
  br i1 %4, label %5, label %6

5:                                                ; preds = %1
  call void @_ZSt25__throw_bad_function_callv() #19
  unreachable

6:                                                ; preds = %1
  %7 = getelementptr inbounds %"class.std::function", ptr %3, i32 0, i32 1
  %8 = load ptr, ptr %7, align 8
  %9 = getelementptr inbounds %"class.std::_Function_base", ptr %3, i32 0, i32 0
  %10 = call noundef zeroext i1 %8(ptr noundef nonnull align 8 dereferenceable(16) %9)
  ret i1 %10
}

; Function Attrs: mustprogress nounwind uwtable
define linkonce_odr noundef zeroext i1 @_ZNKSt8functionIFbvEEcvbEv(ptr noundef nonnull align 8 dereferenceable(32) %0) #2 comdat align 2 personality ptr @__gxx_personality_v0 {
  %2 = alloca ptr, align 8
  store ptr %0, ptr %2, align 8
  %3 = load ptr, ptr %2, align 8
  %4 = invoke noundef zeroext i1 @_ZNKSt14_Function_base8_M_emptyEv(ptr noundef nonnull align 8 dereferenceable(24) %3)
          to label %5 unwind label %7

5:                                                ; preds = %1
  %6 = xor i1 %4, true
  ret i1 %6

7:                                                ; preds = %1
  %8 = landingpad { ptr, i32 }
          catch ptr null
  %9 = extractvalue { ptr, i32 } %8, 0
  call void @__clang_call_terminate(ptr %9) #21
  unreachable
}

; Function Attrs: uwtable
define linkonce_odr hidden noundef ptr @_ZTWN3nix14interruptCheckE() #14 comdat {
  br i1 icmp ne (ptr @_ZTHN3nix14interruptCheckE, ptr null), label %1, label %2

1:                                                ; preds = %0
  call void @_ZTHN3nix14interruptCheckE()
  br label %2

2:                                                ; preds = %1, %0
  %3 = call align 8 ptr @llvm.threadlocal.address.p0(ptr align 8 @_ZN3nix14interruptCheckE)
  ret ptr %3
}

; Function Attrs: mustprogress nounwind uwtable
define linkonce_odr noundef zeroext i1 @_ZNKSt6atomicIbEcvbEv(ptr noundef nonnull align 1 dereferenceable(1) %0) #2 comdat align 2 personality ptr @__gxx_personality_v0 {
  %2 = alloca ptr, align 8
  %3 = alloca i32, align 4
  %4 = alloca i32, align 4
  %5 = alloca i8, align 1
  %6 = alloca ptr, align 8
  store ptr %0, ptr %6, align 8
  %7 = load ptr, ptr %6, align 8
  %8 = getelementptr inbounds %"struct.std::atomic", ptr %7, i32 0, i32 0
  store ptr %8, ptr %2, align 8
  store i32 5, ptr %3, align 4
  %9 = load ptr, ptr %2, align 8
  %10 = load i32, ptr %3, align 4
  %11 = invoke noundef i32 @_ZStanSt12memory_orderSt23__memory_order_modifier(i32 noundef %10, i32 noundef 65535)
          to label %12 unwind label %20

12:                                               ; preds = %1
  store i32 %11, ptr %4, align 4
  %13 = load i32, ptr %3, align 4
  switch i32 %13, label %14 [
    i32 1, label %16
    i32 2, label %16
    i32 5, label %18
  ]

14:                                               ; preds = %12
  %15 = load atomic i8, ptr %9 monotonic, align 1
  store i8 %15, ptr %5, align 1
  br label %23

16:                                               ; preds = %12, %12
  %17 = load atomic i8, ptr %9 acquire, align 1
  store i8 %17, ptr %5, align 1
  br label %23

18:                                               ; preds = %12
  %19 = load atomic i8, ptr %9 seq_cst, align 1
  store i8 %19, ptr %5, align 1
  br label %23

20:                                               ; preds = %1
  %21 = landingpad { ptr, i32 }
          catch ptr null
  %22 = extractvalue { ptr, i32 } %21, 0
  call void @__clang_call_terminate(ptr %22) #21
  unreachable

23:                                               ; preds = %18, %16, %14
  %24 = load i8, ptr %5, align 1
  %25 = trunc i8 %24 to i1
  ret i1 %25
}

; Function Attrs: mustprogress nounwind uwtable
define linkonce_odr void @_ZNSt17basic_string_viewIcSt11char_traitsIcEE13remove_prefixEm(ptr noundef nonnull align 8 dereferenceable(16) %0, i64 noundef %1) #2 comdat align 2 {
  %3 = alloca ptr, align 8
  %4 = alloca i64, align 8
  store ptr %0, ptr %3, align 8
  store i64 %1, ptr %4, align 8
  %5 = load ptr, ptr %3, align 8
  br label %6

6:                                                ; preds = %2
  br label %7

7:                                                ; preds = %6
  br label %8

8:                                                ; preds = %7
  %9 = load i64, ptr %4, align 8
  %10 = getelementptr inbounds %"class.std::basic_string_view", ptr %5, i32 0, i32 1
  %11 = load ptr, ptr %10, align 8
  %12 = getelementptr inbounds i8, ptr %11, i64 %9
  store ptr %12, ptr %10, align 8
  %13 = load i64, ptr %4, align 8
  %14 = getelementptr inbounds %"class.std::basic_string_view", ptr %5, i32 0, i32 0
  %15 = load i64, ptr %14, align 8
  %16 = sub i64 %15, %13
  store i64 %16, ptr %14, align 8
  ret void
}

; Function Attrs: mustprogress nounwind uwtable
define linkonce_odr noundef i64 @_ZNKSt17basic_string_viewIcSt11char_traitsIcEE4sizeEv(ptr noundef nonnull align 8 dereferenceable(16) %0) #2 comdat align 2 {
  %2 = alloca ptr, align 8
  store ptr %0, ptr %2, align 8
  %3 = load ptr, ptr %2, align 8
  %4 = getelementptr inbounds %"class.std::basic_string_view", ptr %3, i32 0, i32 0
  %5 = load i64, ptr %4, align 8
  ret i64 %5
}

; Function Attrs: mustprogress nounwind uwtable
define linkonce_odr noundef ptr @_ZNKSt17basic_string_viewIcSt11char_traitsIcEE4dataEv(ptr noundef nonnull align 8 dereferenceable(16) %0) #2 comdat align 2 {
  %2 = alloca ptr, align 8
  store ptr %0, ptr %2, align 8
  %3 = load ptr, ptr %2, align 8
  %4 = getelementptr inbounds %"class.std::basic_string_view", ptr %3, i32 0, i32 1
  %5 = load ptr, ptr %4, align 8
  ret ptr %5
}

; Function Attrs: mustprogress uwtable
define linkonce_odr void @_ZN3nix14checkInterruptEv() #3 comdat {
  %1 = call noundef zeroext i1 @_ZNKSt6atomicIbEcvbEv(ptr noundef nonnull align 1 dereferenceable(1) @_ZN3nix14_isInterruptedE) #1
  br i1 %1, label %8, label %2

2:                                                ; preds = %0
  %3 = call ptr @_ZTWN3nix14interruptCheckE()
  %4 = call noundef zeroext i1 @_ZNKSt8functionIFbvEEcvbEv(ptr noundef nonnull align 8 dereferenceable(32) %3) #1
  br i1 %4, label %5, label %9

5:                                                ; preds = %2
  %6 = call ptr @_ZTWN3nix14interruptCheckE()
  %7 = call noundef zeroext i1 @_ZNKSt8functionIFbvEEclEv(ptr noundef nonnull align 8 dereferenceable(32) %6)
  br i1 %7, label %8, label %9

8:                                                ; preds = %5, %0
  call void @_ZN3nix12_interruptedEv()
  br label %9

9:                                                ; preds = %8, %5, %2
  ret void
}

; Function Attrs: mustprogress nounwind uwtable
define linkonce_odr noundef zeroext i1 @_ZNKSt17basic_string_viewIcSt11char_traitsIcEE5emptyEv(ptr noundef nonnull align 8 dereferenceable(16) %0) #2 comdat align 2 {
  %2 = alloca ptr, align 8
  store ptr %0, ptr %2, align 8
  %3 = load ptr, ptr %2, align 8
  %4 = getelementptr inbounds %"class.std::basic_string_view", ptr %3, i32 0, i32 0
  %5 = load i64, ptr %4, align 8
  %6 = icmp eq i64 %5, 0
  ret i1 %6
}

; Function Attrs: mustprogress uwtable
define void @_ZN3nix9writeFullEiSt17basic_string_viewIcSt11char_traitsIcEEb(i32 noundef %0, i64 %1, ptr %2, i1 noundef zeroext %3) #3 personality ptr @__gxx_personality_v0 {
  %5 = alloca %"class.std::basic_string_view", align 8
  %6 = alloca i32, align 4
  %7 = alloca i8, align 1
  %8 = alloca i64, align 8
  %9 = alloca ptr, align 8
  %10 = alloca i32, align 4
  %11 = getelementptr inbounds { i64, ptr }, ptr %5, i32 0, i32 0
  store i64 %1, ptr %11, align 8
  %12 = getelementptr inbounds { i64, ptr }, ptr %5, i32 0, i32 1
  store ptr %2, ptr %12, align 8
  store i32 %0, ptr %6, align 4
  %13 = zext i1 %3 to i8
  store i8 %13, ptr %7, align 1
  br label %14

14:                                               ; preds = %44, %4
  %15 = call noundef zeroext i1 @_ZNKSt17basic_string_viewIcSt11char_traitsIcEE5emptyEv(ptr noundef nonnull align 8 dereferenceable(16) %5) #1
  %16 = xor i1 %15, true
  br i1 %16, label %17, label %45

17:                                               ; preds = %14
  %18 = load i8, ptr %7, align 1
  %19 = trunc i8 %18 to i1
  br i1 %19, label %20, label %21

20:                                               ; preds = %17
  call void @_ZN3nix14checkInterruptEv()
  br label %21

21:                                               ; preds = %20, %17
  %22 = load i32, ptr %6, align 4
  %23 = call noundef ptr @_ZNKSt17basic_string_viewIcSt11char_traitsIcEE4dataEv(ptr noundef nonnull align 8 dereferenceable(16) %5) #1
  %24 = call noundef i64 @_ZNKSt17basic_string_viewIcSt11char_traitsIcEE4sizeEv(ptr noundef nonnull align 8 dereferenceable(16) %5) #1
  %25 = call i64 @write(i32 noundef %22, ptr noundef %23, i64 noundef %24)
  store i64 %25, ptr %8, align 8
  %26 = load i64, ptr %8, align 8
  %27 = icmp eq i64 %26, -1
  br i1 %27, label %28, label %39

28:                                               ; preds = %21
  %29 = call ptr @__errno_location() #20
  %30 = load i32, ptr %29, align 4
  %31 = icmp ne i32 %30, 4
  br i1 %31, label %32, label %39

32:                                               ; preds = %28
  %33 = call ptr @__cxa_allocate_exception(i64 384) #1
  invoke void @_ZN3nix8SysErrorC2IJA16_cEEEDpRKT_(ptr noundef nonnull align 8 dereferenceable(380) %33, ptr noundef nonnull align 1 dereferenceable(16) @.str.5)
          to label %34 unwind label %35

34:                                               ; preds = %32
  call void @__cxa_throw(ptr %33, ptr @_ZTIN3nix8SysErrorE, ptr @_ZN3nix8SysErrorD2Ev) #19
  unreachable

35:                                               ; preds = %32
  %36 = landingpad { ptr, i32 }
          cleanup
  %37 = extractvalue { ptr, i32 } %36, 0
  store ptr %37, ptr %9, align 8
  %38 = extractvalue { ptr, i32 } %36, 1
  store i32 %38, ptr %10, align 4
  call void @__cxa_free_exception(ptr %33) #1
  br label %46

39:                                               ; preds = %28, %21
  %40 = load i64, ptr %8, align 8
  %41 = icmp sgt i64 %40, 0
  br i1 %41, label %42, label %44

42:                                               ; preds = %39
  %43 = load i64, ptr %8, align 8
  call void @_ZNSt17basic_string_viewIcSt11char_traitsIcEE13remove_prefixEm(ptr noundef nonnull align 8 dereferenceable(16) %5, i64 noundef %43) #1
  br label %44

44:                                               ; preds = %42, %39
  br label %14, !llvm.loop !6

45:                                               ; preds = %14
  ret void

46:                                               ; preds = %35
  %47 = load ptr, ptr %9, align 8
  %48 = load i32, ptr %10, align 4
  %49 = insertvalue { ptr, i32 } poison, ptr %47, 0
  %50 = insertvalue { ptr, i32 } %49, i32 %48, 1
  resume { ptr, i32 } %50
}