; Function Attrs: uwtable
define void @_ZN3nix9writeFullEiSt17basic_string_viewIcSt11char_traitsIcEEb(i32 noundef %0, i64 %1, ptr nocapture readonly %2, i1 noundef zeroext %3) local_unnamed_addr #5 personality ptr @__gxx_personality_v0 {
  %5 = icmp eq i64 %1, 0
  br i1 %5, label %._crit_edge, label %.lr.ph

.lr.ph:                                           ; preds = %4
  %6 = tail call align 8 ptr @llvm.threadlocal.address.p0(ptr align 8 @_ZN3nix14interruptCheckE)
  %7 = getelementptr inbounds i8, ptr %6, i64 16
  %8 = getelementptr inbounds i8, ptr %6, i64 24
  br i1 %3, label %.lr.ph.split.us, label %_ZN3nix14checkInterruptEv.exit

.lr.ph.split.us:                                  ; preds = %.lr.ph, %.thread.us
  %.sroa.0.010.us = phi i64 [ %.sroa.0.1.us, %.thread.us ], [ %1, %.lr.ph ]
  %.sroa.5.09.us = phi ptr [ %.sroa.5.1.us, %.thread.us ], [ %2, %.lr.ph ]
  %9 = load atomic i8, ptr @_ZN3nix14_isInterruptedE seq_cst, align 1
  %10 = and i8 %9, 1
  %.not.i.us = icmp eq i8 %10, 0
  br i1 %.not.i.us, label %11, label %17

11:                                               ; preds = %.lr.ph.split.us
  br i1 icmp ne (ptr @_ZTHN3nix14interruptCheckE, ptr null), label %12, label %_ZTWN3nix14interruptCheckE.exit.i.us

12:                                               ; preds = %11
  tail call void @_ZTHN3nix14interruptCheckE()
  br label %_ZTWN3nix14interruptCheckE.exit.i.us

_ZTWN3nix14interruptCheckE.exit.i.us:             ; preds = %12, %11
  %13 = load ptr, ptr %7, align 8
  %.not.i.i.not.i.us = icmp eq ptr %13, null
  br i1 %.not.i.i.not.i.us, label %_ZN3nix14checkInterruptEv.exit.us, label %14

14:                                               ; preds = %_ZTWN3nix14interruptCheckE.exit.i.us
  br i1 icmp ne (ptr @_ZTHN3nix14interruptCheckE, ptr null), label %_ZTWN3nix14interruptCheckE.exit1.i.us, label %_ZNKSt8functionIFbvEEclEv.exit.i.us

_ZTWN3nix14interruptCheckE.exit1.i.us:            ; preds = %14
  tail call void @_ZTHN3nix14interruptCheckE()
  %.pr.i.us = load ptr, ptr %7, align 8
  %.not.i.i2.i.us = icmp eq ptr %.pr.i.us, null
  br i1 %.not.i.i2.i.us, label %.split.us, label %_ZNKSt8functionIFbvEEclEv.exit.i.us

_ZNKSt8functionIFbvEEclEv.exit.i.us:              ; preds = %_ZTWN3nix14interruptCheckE.exit1.i.us, %14
  %15 = load ptr, ptr %8, align 8
  %16 = tail call noundef zeroext i1 %15(ptr noundef nonnull align 8 dereferenceable(16) %6)
  br i1 %16, label %17, label %_ZN3nix14checkInterruptEv.exit.us

17:                                               ; preds = %_ZNKSt8functionIFbvEEclEv.exit.i.us, %.lr.ph.split.us
  tail call void @_ZN3nix12_interruptedEv()
  br label %_ZN3nix14checkInterruptEv.exit.us

_ZN3nix14checkInterruptEv.exit.us:                ; preds = %17, %_ZNKSt8functionIFbvEEclEv.exit.i.us, %_ZTWN3nix14interruptCheckE.exit.i.us
  %18 = tail call i64 @write(i32 noundef %0, ptr noundef %.sroa.5.09.us, i64 noundef %.sroa.0.010.us)
  %19 = icmp eq i64 %18, -1
  br i1 %19, label %25, label %20

20:                                               ; preds = %_ZN3nix14checkInterruptEv.exit.us
  %21 = icmp sgt i64 %18, 0
  br i1 %21, label %22, label %.thread.us

22:                                               ; preds = %20
  %23 = getelementptr inbounds i8, ptr %.sroa.5.09.us, i64 %18
  %24 = sub i64 %.sroa.0.010.us, %18
  br label %.thread.us

25:                                               ; preds = %_ZN3nix14checkInterruptEv.exit.us
  %26 = tail call ptr @__errno_location() #31
  %27 = load i32, ptr %26, align 4
  %.not.us = icmp eq i32 %27, 4
  br i1 %.not.us, label %.thread.us, label %.split12.us

.thread.us:                                       ; preds = %25, %22, %20
  %.sroa.5.1.us = phi ptr [ %23, %22 ], [ %.sroa.5.09.us, %20 ], [ %.sroa.5.09.us, %25 ]
  %.sroa.0.1.us = phi i64 [ %24, %22 ], [ %.sroa.0.010.us, %20 ], [ %.sroa.0.010.us, %25 ]
  %28 = icmp eq i64 %.sroa.0.1.us, 0
  br i1 %28, label %._crit_edge, label %.lr.ph.split.us, !llvm.loop !6

_ZN3nix14checkInterruptEv.exit:                   ; preds = %.lr.ph, %.thread
  %.sroa.0.010 = phi i64 [ %.sroa.0.1, %.thread ], [ %1, %.lr.ph ]
  %.sroa.5.09 = phi ptr [ %.sroa.5.1, %.thread ], [ %2, %.lr.ph ]
  %29 = tail call i64 @write(i32 noundef %0, ptr noundef %.sroa.5.09, i64 noundef %.sroa.0.010)
  %30 = icmp eq i64 %29, -1
  br i1 %30, label %31, label %38

.split.us:                                        ; preds = %_ZTWN3nix14interruptCheckE.exit1.i.us
  tail call void @_ZSt25__throw_bad_function_callv() #30
  unreachable

31:                                               ; preds = %_ZN3nix14checkInterruptEv.exit
  %32 = tail call ptr @__errno_location() #31
  %33 = load i32, ptr %32, align 4
  %.not = icmp eq i32 %33, 4
  br i1 %.not, label %.thread, label %.split12.us

.split12.us:                                      ; preds = %31, %25
  %34 = tail call ptr @__cxa_allocate_exception(i64 384) #29
  invoke void @_ZN3nix8SysErrorC2IJA16_cEEEDpRKT_(ptr noundef nonnull align 8 dereferenceable(380) %34, ptr noundef nonnull align 1 dereferenceable(16) @.str.5)
          to label %35 unwind label %36

35:                                               ; preds = %.split12.us
  tail call void @__cxa_throw(ptr nonnull %34, ptr nonnull @_ZTIN3nix8SysErrorE, ptr nonnull @_ZN3nix8SysErrorD2Ev) #30
  unreachable

36:                                               ; preds = %.split12.us
  %37 = landingpad { ptr, i32 }
          cleanup
  tail call void @__cxa_free_exception(ptr %34) #29
  resume { ptr, i32 } %37

38:                                               ; preds = %_ZN3nix14checkInterruptEv.exit
  %39 = icmp sgt i64 %29, 0
  br i1 %39, label %40, label %.thread

40:                                               ; preds = %38
  %41 = getelementptr inbounds i8, ptr %.sroa.5.09, i64 %29
  %42 = sub i64 %.sroa.0.010, %29
  br label %.thread

.thread:                                          ; preds = %31, %40, %38
  %.sroa.5.1 = phi ptr [ %41, %40 ], [ %.sroa.5.09, %38 ], [ %.sroa.5.09, %31 ]
  %.sroa.0.1 = phi i64 [ %42, %40 ], [ %.sroa.0.010, %38 ], [ %.sroa.0.010, %31 ]
  %43 = icmp eq i64 %.sroa.0.1, 0
  br i1 %43, label %._crit_edge, label %_ZN3nix14checkInterruptEv.exit, !llvm.loop !6

._crit_edge:                                      ; preds = %.thread, %.thread.us, %4
  ret void
}